#include <math.h>
#include <stdio.h>
#include <stdlib.h>
#include <string.h>
#define ASCII 100
#define MAX_N 100
#define MAX_M 100
#define ASC 100
#define null 0
#define Len 100
#define SUM 100
#define NUMBER 100
#define SIZE 100
#define MAXN 100
#define MAXSIZE 100
#define maxrow 100
#define maxcol 100
#define mx 100
#define NUM 100
#define ROW 100
#define COL 100
#define SIZEE 100
#define MAX_LEN 100
#define LIU 100
#define maxsize 100
#define NUM 100
#define NO 100
#define Null 0
#define ID_DIGITS 100
#define INT_MAX 100
#define INT_MIN 100
#define FALSE 0
#define TRUE 1
#define hang 100
#define lie 100
#define lll 100
#define LEM 100
#define K 100
#define INF 100
#define MONTH 12
#define true 1
#define PI 100
#define maxlen 100
#define maxinputint 100
#define STUDENT_NUM 100
#define TOTAL 100
#define LEN1 100
#define student_num 100
#define MAXLEN 100
#define MAXL 100
#define nMax 100
#define Vocabularysize 100
#define Sentencelength 100
#define LENGTH 100
#define ARRAY 100
#define len 100
#define j 100
#define tsuhu 100
#define l 100
#define p 100
#define h 100
#define maxn 100
#define MAXLENGTH 100
#define SEX 100

int height[26];

int cal(int N,int M){
	int i,max,sub;
	max=0;
	if(M==0){
		return 1;
	}
	for(i=N+1;i<=N+M;i++){
		if(height[N]>=height[i]){
			sub=cal(i,N+M-i);
			if(sub>=max){
				max=sub;
			}
		}
	} 
	return max+1;
}

int main()
{
	int k,i;
	scanf("%d\n",&k);
	height[0]=10000000; 
	scanf("%d",&height[1]);
	for(i=1;i<=k-1;i++){
		scanf(" %d",&height[i+1]);
	}
	
	printf("%d",cal(0,k+1)-2);
	
	return 0;
 } 
 
